target datalayout = "e-m:e-p270:32:32-p271:32:32-p272:64:64-i64:64-i128:128-f80:128-n8:16:32:64-S128"
target triple = "x86_64-pc-linux-gnu"

%"class.base::PersistentSparseHistogramDataManager" = type { ptr, %"class.base::PersistentMemoryAllocator::Iterator", %"class.std::map", %"class.base::Lock" }
%"class.base::PersistentMemoryAllocator::Iterator" = type { ptr, %"struct.std::atomic", %"struct.std::atomic" }
%"struct.std::atomic" = type { %"struct.std::__atomic_base" }
%"struct.std::__atomic_base" = type { i32 }
%"class.std::map" = type { %"class.std::_Rb_tree" }
%"class.std::_Rb_tree" = type { %"struct.std::_Rb_tree<unsigned long, std::pair<const unsigned long, std::unique_ptr<base::PersistentSampleMapRecords>>, std::_Select1st<std::pair<const unsigned long, std::unique_ptr<base::PersistentSampleMapRecords>>>, std::less<unsigned long>>::_Rb_tree_impl" }
%"struct.std::_Rb_tree<unsigned long, std::pair<const unsigned long, std::unique_ptr<base::PersistentSampleMapRecords>>, std::_Select1st<std::pair<const unsigned long, std::unique_ptr<base::PersistentSampleMapRecords>>>, std::less<unsigned long>>::_Rb_tree_impl" = type { [8 x i8], %"struct.std::_Rb_tree_header" }
%"struct.std::_Rb_tree_header" = type { %"struct.std::_Rb_tree_node_base", i64 }
%"struct.std::_Rb_tree_node_base" = type { i32, ptr, ptr, ptr }
%"class.base::Lock" = type { %"class.base::internal::LockImpl" }
%"class.base::internal::LockImpl" = type { %union.pthread_mutex_t }
%union.pthread_mutex_t = type { %struct.__pthread_mutex_s }
%struct.__pthread_mutex_s = type { i32, i32, i32, i32, i32, i16, i16, %struct.__pthread_internal_list }
%struct.__pthread_internal_list = type { ptr, ptr }
%"class.base::AutoLock" = type { ptr }
%"class.base::PersistentSampleMapRecords" = type { ptr, i64, ptr, i64, %"class.std::vector", %"class.std::vector" }
%"class.std::vector" = type { %"struct.std::_Vector_base" }
%"struct.std::_Vector_base" = type { %"struct.std::_Vector_base<unsigned int, std::allocator<unsigned int>>::_Vector_impl" }
%"struct.std::_Vector_base<unsigned int, std::allocator<unsigned int>>::_Vector_impl" = type { %"struct.std::_Vector_base<unsigned int, std::allocator<unsigned int>>::_Vector_impl_data" }
%"struct.std::_Vector_base<unsigned int, std::allocator<unsigned int>>::_Vector_impl_data" = type { ptr, ptr, ptr }

; Function Attrs: mustprogress uwtable
define linkonce_odr void @_ZN4base4Lock7ReleaseEv(ptr noundef nonnull align 8 dereferenceable(40) %0) #0 comdat align 2 {
  %2 = alloca ptr, align 8
  store ptr %0, ptr %2, align 8, !tbaa !30
  %3 = load ptr, ptr %2, align 8
  %4 = getelementptr inbounds nuw %"class.base::Lock", ptr %3, i32 0, i32 0
  call void @_ZN4base8internal8LockImpl6UnlockEv(ptr noundef nonnull align 8 dereferenceable(40) %4)
  ret void
}

; Function Attrs: mustprogress nounwind uwtable
define linkonce_odr void @_ZNK4base4Lock14AssertAcquiredEv(ptr noundef nonnull align 8 dereferenceable(40) %0) #2 comdat align 2 {
  %2 = alloca ptr, align 8
  store ptr %0, ptr %2, align 8, !tbaa !30
  ret void
}

; Function Attrs: mustprogress uwtable
define linkonce_odr void @_ZN4base4Lock7AcquireEv(ptr noundef nonnull align 8 dereferenceable(40) %0) #0 comdat align 2 {
  %2 = alloca ptr, align 8
  store ptr %0, ptr %2, align 8, !tbaa !30
  %3 = load ptr, ptr %2, align 8
  %4 = getelementptr inbounds nuw %"class.base::Lock", ptr %3, i32 0, i32 0
  call void @_ZN4base8internal8LockImpl4LockEv(ptr noundef nonnull align 8 dereferenceable(40) %4)
  ret void
}

; Function Attrs: mustprogress nounwind uwtable
define linkonce_odr void @_ZN4base8AutoLockD2Ev(ptr noundef nonnull align 8 dereferenceable(8) %0) unnamed_addr #2 comdat align 2 personality ptr @__gxx_personality_v0 {
  %2 = alloca ptr, align 8
  store ptr %0, ptr %2, align 8, !tbaa !34
  %3 = load ptr, ptr %2, align 8
  %4 = getelementptr inbounds nuw %"class.base::AutoLock", ptr %3, i32 0, i32 0
  %5 = load ptr, ptr %4, align 8, !tbaa !36
  invoke void @_ZNK4base4Lock14AssertAcquiredEv(ptr noundef nonnull align 8 dereferenceable(40) %5)
          to label %6 unwind label %10

6:                                                ; preds = %1
  %7 = getelementptr inbounds nuw %"class.base::AutoLock", ptr %3, i32 0, i32 0
  %8 = load ptr, ptr %7, align 8, !tbaa !36
  invoke void @_ZN4base4Lock7ReleaseEv(ptr noundef nonnull align 8 dereferenceable(40) %8)
          to label %9 unwind label %10

9:                                                ; preds = %6
  ret void

10:                                               ; preds = %6, %1
  %11 = landingpad { ptr, i32 }
          catch ptr null
  %12 = extractvalue { ptr, i32 } %11, 0
  call void @__clang_call_terminate(ptr %12) #18
  unreachable
}

; Function Attrs: mustprogress nounwind uwtable
define noundef ptr @_ZN4base26PersistentSampleMapRecords7AcquireEPKv(ptr noundef nonnull align 8 dereferenceable(80) %0, ptr noundef %1) #2 align 2 {
  %3 = alloca ptr, align 8
  %4 = alloca ptr, align 8
  store ptr %0, ptr %3, align 8, !tbaa !40
  store ptr %1, ptr %4, align 8, !tbaa !33
  %5 = load ptr, ptr %3, align 8
  %6 = load ptr, ptr %4, align 8, !tbaa !33
  %7 = getelementptr inbounds nuw %"class.base::PersistentSampleMapRecords", ptr %5, i32 0, i32 2
  store ptr %6, ptr %7, align 8, !tbaa !42
  %8 = getelementptr inbounds nuw %"class.base::PersistentSampleMapRecords", ptr %5, i32 0, i32 3
  store i64 0, ptr %8, align 8, !tbaa !49
  ret ptr %5
}

; Function Attrs: mustprogress uwtable
define linkonce_odr void @_ZN4base8AutoLockC2ERNS_4LockE(ptr noundef nonnull align 8 dereferenceable(8) %0, ptr noundef nonnull align 8 dereferenceable(40) %1) unnamed_addr #0 comdat align 2 {
  %3 = alloca ptr, align 8
  %4 = alloca ptr, align 8
  store ptr %0, ptr %3, align 8, !tbaa !34
  store ptr %1, ptr %4, align 8, !tbaa !30
  %5 = load ptr, ptr %3, align 8
  %6 = getelementptr inbounds nuw %"class.base::AutoLock", ptr %5, i32 0, i32 0
  %7 = load ptr, ptr %4, align 8, !tbaa !30
  store ptr %7, ptr %6, align 8, !tbaa !30
  %8 = getelementptr inbounds nuw %"class.base::AutoLock", ptr %5, i32 0, i32 0
  %9 = load ptr, ptr %8, align 8, !tbaa !36
  call void @_ZN4base4Lock7AcquireEv(ptr noundef nonnull align 8 dereferenceable(40) %9)
  ret void
}

; Function Attrs: mustprogress uwtable
define noundef ptr @_ZN4base36PersistentSparseHistogramDataManager19UseSampleMapRecordsEmPKv(ptr noundef nonnull align 8 dereferenceable(112) %0, i64 noundef %1, ptr noundef %2) #0 align 2 personality ptr @__gxx_personality_v0 {
  %4 = alloca ptr, align 8
  %5 = alloca i64, align 8
  %6 = alloca ptr, align 8
  %7 = alloca %"class.base::AutoLock", align 8
  %8 = alloca ptr, align 8
  %9 = alloca i32, align 4
  store ptr %0, ptr %4, align 8, !tbaa !3
  store i64 %1, ptr %5, align 8, !tbaa !32
  store ptr %2, ptr %6, align 8, !tbaa !33
  %10 = load ptr, ptr %4, align 8
  call void @llvm.lifetime.start.p0(i64 8, ptr %7) #17
  %11 = getelementptr inbounds nuw %"class.base::PersistentSparseHistogramDataManager", ptr %10, i32 0, i32 3
  call void @_ZN4base8AutoLockC2ERNS_4LockE(ptr noundef nonnull align 8 dereferenceable(8) %7, ptr noundef nonnull align 8 dereferenceable(40) %11)
  %12 = load i64, ptr %5, align 8, !tbaa !32
  %13 = invoke noundef ptr @_ZN4base36PersistentSparseHistogramDataManager30GetSampleMapRecordsWhileLockedEm(ptr noundef nonnull align 8 dereferenceable(112) %10, i64 noundef %12)
          to label %14 unwind label %18

14:                                               ; preds = %3
  %15 = load ptr, ptr %6, align 8, !tbaa !33
  %16 = invoke noundef ptr @_ZN4base26PersistentSampleMapRecords7AcquireEPKv(ptr noundef nonnull align 8 dereferenceable(80) %13, ptr noundef %15)
          to label %17 unwind label %18

17:                                               ; preds = %14
  call void @_ZN4base8AutoLockD2Ev(ptr noundef nonnull align 8 dereferenceable(8) %7) #17
  call void @llvm.lifetime.end.p0(i64 8, ptr %7) #17
  ret ptr %16

18:                                               ; preds = %14, %3
  %19 = landingpad { ptr, i32 }
          cleanup
  %20 = extractvalue { ptr, i32 } %19, 0
  store ptr %20, ptr %8, align 8
  %21 = extractvalue { ptr, i32 } %19, 1
  store i32 %21, ptr %9, align 4
  call void @_ZN4base8AutoLockD2Ev(ptr noundef nonnull align 8 dereferenceable(8) %7) #17
  call void @llvm.lifetime.end.p0(i64 8, ptr %7) #17
  br label %22

22:                                               ; preds = %18
  %23 = load ptr, ptr %8, align 8
  %24 = load i32, ptr %9, align 4
  %25 = insertvalue { ptr, i32 } poison, ptr %23, 0
  %26 = insertvalue { ptr, i32 } %25, i32 %24, 1
  resume { ptr, i32 } %26
}