; Function Attrs: mustprogress uwtable
define noundef nonnull ptr @_ZN4base36PersistentSparseHistogramDataManager19UseSampleMapRecordsEmPKv(ptr noundef nonnull align 8 dereferenceable(112) %0, i64 noundef %1, ptr noundef %2) local_unnamed_addr #0 align 2 personality ptr @__gxx_personality_v0 {
  %4 = getelementptr inbounds nuw i8, ptr %0, i64 72
  tail call void @_ZN4base8internal8LockImpl4LockEv(ptr noundef nonnull align 8 dereferenceable(40) %4)
  %5 = invoke noundef ptr @_ZN4base36PersistentSparseHistogramDataManager30GetSampleMapRecordsWhileLockedEm(ptr noundef nonnull align 8 dereferenceable(112) %0, i64 noundef %1)
          to label %6 unwind label %12

6:                                                ; preds = %3
  %7 = getelementptr inbounds nuw i8, ptr %5, i64 16
  store ptr %2, ptr %7, align 8, !tbaa !30
  %8 = getelementptr inbounds nuw i8, ptr %5, i64 24
  store i64 0, ptr %8, align 8, !tbaa !38
  invoke void @_ZN4base8internal8LockImpl6UnlockEv(ptr noundef nonnull align 8 dereferenceable(40) %4)
          to label %_ZN4base8AutoLockD2Ev.exit unwind label %9

9:                                                ; preds = %6
  %10 = landingpad { ptr, i32 }
          catch ptr null
  %11 = extractvalue { ptr, i32 } %10, 0
  tail call void @__clang_call_terminate(ptr %11) #22
  unreachable

_ZN4base8AutoLockD2Ev.exit:                       ; preds = %6
  ret ptr %5

12:                                               ; preds = %3
  %13 = landingpad { ptr, i32 }
          cleanup
  invoke void @_ZN4base8internal8LockImpl6UnlockEv(ptr noundef nonnull align 8 dereferenceable(40) %4)
          to label %_ZN4base8AutoLockD2Ev.exit4 unwind label %14

14:                                               ; preds = %12
  %15 = landingpad { ptr, i32 }
          catch ptr null
  %16 = extractvalue { ptr, i32 } %15, 0
  tail call void @__clang_call_terminate(ptr %16) #22
  unreachable

_ZN4base8AutoLockD2Ev.exit4:                      ; preds = %12
  resume { ptr, i32 } %13
}